target datalayout = "e-m:e-p270:32:32-p271:32:32-p272:64:64-i64:64-i128:128-f80:128-n8:16:32:64-S128"
target triple = "x86_64-pc-linux-gnu"

%struct.lxb_html_tokenizer = type { ptr, ptr, ptr, ptr, ptr, ptr, ptr, ptr, ptr, ptr, ptr, ptr, ptr, ptr, ptr, i64, ptr, ptr, ptr, ptr, ptr, i64, i64, ptr, ptr, i64, i64, i32, i32, i8, i32, i32, i8, ptr, i64 }
%struct.lxb_html_token_t = type { ptr, ptr, i64, i64, ptr, ptr, ptr, ptr, ptr, i64, i64, i32 }

; Function Attrs: nounwind uwtable
define internal void @lxb_html_token_clean(ptr noundef %0) #0 {
  %2 = alloca ptr, align 8
  store ptr %0, ptr %2, align 8
  %3 = load ptr, ptr %2, align 8
  call void @llvm.memset.p0.i64(ptr align 8 %3, i8 0, i64 96, i1 false)
  ret void
}

; Function Attrs: nounwind uwtable
define internal ptr @lxb_html_tokenizer_state_doctype_after_system_identifier(ptr noundef %0, ptr noundef %1, ptr noundef %2) #0 {
  %4 = alloca ptr, align 8
  %5 = alloca ptr, align 8
  %6 = alloca ptr, align 8
  %7 = alloca ptr, align 8
  store ptr %0, ptr %5, align 8
  store ptr %1, ptr %6, align 8
  store ptr %2, ptr %7, align 8
  %8 = load ptr, ptr %6, align 8
  %9 = load i8, ptr %8, align 1
  %10 = zext i8 %9 to i32
  switch i32 %10, label %142 [
    i32 9, label %11
    i32 10, label %11
    i32 12, label %11
    i32 13, label %11
    i32 32, label %11
    i32 62, label %14
    i32 0, label %70
  ]

11:                                               ; preds = %3, %3, %3, %3, %3
  %12 = load ptr, ptr %6, align 8
  %13 = getelementptr inbounds i8, ptr %12, i64 1
  store ptr %13, ptr %4, align 8
  br label %151

14:                                               ; preds = %3
  %15 = load ptr, ptr %5, align 8
  %16 = getelementptr inbounds %struct.lxb_html_tokenizer, ptr %15, i32 0, i32 0
  store ptr @lxb_html_tokenizer_state_data_before, ptr %16, align 8
  br label %17

17:                                               ; preds = %14
  %18 = load ptr, ptr %5, align 8
  %19 = getelementptr inbounds %struct.lxb_html_tokenizer, ptr %18, i32 0, i32 8
  %20 = load ptr, ptr %19, align 8
  %21 = getelementptr inbounds %struct.lxb_html_token_t, ptr %20, i32 0, i32 0
  %22 = load ptr, ptr %21, align 8
  %23 = load ptr, ptr %5, align 8
  %24 = getelementptr inbounds %struct.lxb_html_tokenizer, ptr %23, i32 0, i32 8
  %25 = load ptr, ptr %24, align 8
  %26 = getelementptr inbounds %struct.lxb_html_token_t, ptr %25, i32 0, i32 1
  %27 = load ptr, ptr %26, align 8
  %28 = icmp ne ptr %22, %27
  br i1 %28, label %29, label %58

29:                                               ; preds = %17
  %30 = load ptr, ptr %5, align 8
  %31 = getelementptr inbounds %struct.lxb_html_tokenizer, ptr %30, i32 0, i32 2
  %32 = load ptr, ptr %31, align 8
  %33 = load ptr, ptr %5, align 8
  %34 = load ptr, ptr %5, align 8
  %35 = getelementptr inbounds %struct.lxb_html_tokenizer, ptr %34, i32 0, i32 8
  %36 = load ptr, ptr %35, align 8
  %37 = load ptr, ptr %5, align 8
  %38 = getelementptr inbounds %struct.lxb_html_tokenizer, ptr %37, i32 0, i32 3
  %39 = load ptr, ptr %38, align 8
  %40 = call ptr %32(ptr noundef %33, ptr noundef %36, ptr noundef %39)
  %41 = load ptr, ptr %5, align 8
  %42 = getelementptr inbounds %struct.lxb_html_tokenizer, ptr %41, i32 0, i32 8
  store ptr %40, ptr %42, align 8
  %43 = load ptr, ptr %5, align 8
  %44 = getelementptr inbounds %struct.lxb_html_tokenizer, ptr %43, i32 0, i32 8
  %45 = load ptr, ptr %44, align 8
  %46 = icmp eq ptr %45, null
  br i1 %46, label %47, label %57

47:                                               ; preds = %29
  %48 = load ptr, ptr %5, align 8
  %49 = getelementptr inbounds %struct.lxb_html_tokenizer, ptr %48, i32 0, i32 31
  %50 = load i32, ptr %49, align 8
  %51 = icmp eq i32 %50, 0
  br i1 %51, label %52, label %55

52:                                               ; preds = %47
  %53 = load ptr, ptr %5, align 8
  %54 = getelementptr inbounds %struct.lxb_html_tokenizer, ptr %53, i32 0, i32 31
  store i32 1, ptr %54, align 8
  br label %55

55:                                               ; preds = %52, %47
  %56 = load ptr, ptr %7, align 8
  store ptr %56, ptr %4, align 8
  br label %151

57:                                               ; preds = %29
  br label %58

58:                                               ; preds = %57, %17
  %59 = load ptr, ptr %5, align 8
  %60 = getelementptr inbounds %struct.lxb_html_tokenizer, ptr %59, i32 0, i32 8
  %61 = load ptr, ptr %60, align 8
  call void @lxb_html_token_clean(ptr noundef %61)
  %62 = load ptr, ptr %5, align 8
  %63 = getelementptr inbounds %struct.lxb_html_tokenizer, ptr %62, i32 0, i32 16
  %64 = load ptr, ptr %63, align 8
  %65 = load ptr, ptr %5, align 8
  %66 = getelementptr inbounds %struct.lxb_html_tokenizer, ptr %65, i32 0, i32 17
  store ptr %64, ptr %66, align 8
  br label %67

67:                                               ; preds = %58
  %68 = load ptr, ptr %6, align 8
  %69 = getelementptr inbounds i8, ptr %68, i64 1
  store ptr %69, ptr %4, align 8
  br label %151

70:                                               ; preds = %3
  %71 = load ptr, ptr %5, align 8
  %72 = getelementptr inbounds %struct.lxb_html_tokenizer, ptr %71, i32 0, i32 32
  %73 = load i8, ptr %72, align 4
  %74 = trunc i8 %73 to i1
  br i1 %74, label %75, label %141

75:                                               ; preds = %70
  %76 = load ptr, ptr %5, align 8
  %77 = getelementptr inbounds %struct.lxb_html_tokenizer, ptr %76, i32 0, i32 11
  %78 = load ptr, ptr %77, align 8
  %79 = load ptr, ptr %5, align 8
  %80 = getelementptr inbounds %struct.lxb_html_tokenizer, ptr %79, i32 0, i32 20
  %81 = load ptr, ptr %80, align 8
  %82 = call ptr @lxb_html_tokenizer_error_add(ptr noundef %78, ptr noundef %81, i32 noundef 14)
  %83 = load ptr, ptr %5, align 8
  %84 = getelementptr inbounds %struct.lxb_html_tokenizer, ptr %83, i32 0, i32 8
  %85 = load ptr, ptr %84, align 8
  %86 = getelementptr inbounds %struct.lxb_html_token_t, ptr %85, i32 0, i32 11
  %87 = load i32, ptr %86, align 8
  %88 = or i32 %87, 4
  store i32 %88, ptr %86, align 8
  br label %89

89:                                               ; preds = %75
  %90 = load ptr, ptr %5, align 8
  %91 = getelementptr inbounds %struct.lxb_html_tokenizer, ptr %90, i32 0, i32 8
  %92 = load ptr, ptr %91, align 8
  %93 = getelementptr inbounds %struct.lxb_html_token_t, ptr %92, i32 0, i32 0
  %94 = load ptr, ptr %93, align 8
  %95 = load ptr, ptr %5, align 8
  %96 = getelementptr inbounds %struct.lxb_html_tokenizer, ptr %95, i32 0, i32 8
  %97 = load ptr, ptr %96, align 8
  %98 = getelementptr inbounds %struct.lxb_html_token_t, ptr %97, i32 0, i32 1
  %99 = load ptr, ptr %98, align 8
  %100 = icmp ne ptr %94, %99
  br i1 %100, label %101, label %130

101:                                              ; preds = %89
  %102 = load ptr, ptr %5, align 8
  %103 = getelementptr inbounds %struct.lxb_html_tokenizer, ptr %102, i32 0, i32 2
  %104 = load ptr, ptr %103, align 8
  %105 = load ptr, ptr %5, align 8
  %106 = load ptr, ptr %5, align 8
  %107 = getelementptr inbounds %struct.lxb_html_tokenizer, ptr %106, i32 0, i32 8
  %108 = load ptr, ptr %107, align 8
  %109 = load ptr, ptr %5, align 8
  %110 = getelementptr inbounds %struct.lxb_html_tokenizer, ptr %109, i32 0, i32 3
  %111 = load ptr, ptr %110, align 8
  %112 = call ptr %104(ptr noundef %105, ptr noundef %108, ptr noundef %111)
  %113 = load ptr, ptr %5, align 8
  %114 = getelementptr inbounds %struct.lxb_html_tokenizer, ptr %113, i32 0, i32 8
  store ptr %112, ptr %114, align 8
  %115 = load ptr, ptr %5, align 8
  %116 = getelementptr inbounds %struct.lxb_html_tokenizer, ptr %115, i32 0, i32 8
  %117 = load ptr, ptr %116, align 8
  %118 = icmp eq ptr %117, null
  br i1 %118, label %119, label %129

119:                                              ; preds = %101
  %120 = load ptr, ptr %5, align 8
  %121 = getelementptr inbounds %struct.lxb_html_tokenizer, ptr %120, i32 0, i32 31
  %122 = load i32, ptr %121, align 8
  %123 = icmp eq i32 %122, 0
  br i1 %123, label %124, label %127

124:                                              ; preds = %119
  %125 = load ptr, ptr %5, align 8
  %126 = getelementptr inbounds %struct.lxb_html_tokenizer, ptr %125, i32 0, i32 31
  store i32 1, ptr %126, align 8
  br label %127

127:                                              ; preds = %124, %119
  %128 = load ptr, ptr %7, align 8
  store ptr %128, ptr %4, align 8
  br label %151

129:                                              ; preds = %101
  br label %130

130:                                              ; preds = %129, %89
  %131 = load ptr, ptr %5, align 8
  %132 = getelementptr inbounds %struct.lxb_html_tokenizer, ptr %131, i32 0, i32 8
  %133 = load ptr, ptr %132, align 8
  call void @lxb_html_token_clean(ptr noundef %133)
  %134 = load ptr, ptr %5, align 8
  %135 = getelementptr inbounds %struct.lxb_html_tokenizer, ptr %134, i32 0, i32 16
  %136 = load ptr, ptr %135, align 8
  %137 = load ptr, ptr %5, align 8
  %138 = getelementptr inbounds %struct.lxb_html_tokenizer, ptr %137, i32 0, i32 17
  store ptr %136, ptr %138, align 8
  br label %139

139:                                              ; preds = %130
  %140 = load ptr, ptr %7, align 8
  store ptr %140, ptr %4, align 8
  br label %151

141:                                              ; preds = %70
  br label %142

142:                                              ; preds = %141, %3
  %143 = load ptr, ptr %5, align 8
  %144 = getelementptr inbounds %struct.lxb_html_tokenizer, ptr %143, i32 0, i32 11
  %145 = load ptr, ptr %144, align 8
  %146 = load ptr, ptr %6, align 8
  %147 = call ptr @lxb_html_tokenizer_error_add(ptr noundef %145, ptr noundef %146, i32 noundef 41)
  %148 = load ptr, ptr %5, align 8
  %149 = getelementptr inbounds %struct.lxb_html_tokenizer, ptr %148, i32 0, i32 0
  store ptr @lxb_html_tokenizer_state_doctype_bogus, ptr %149, align 8
  %150 = load ptr, ptr %6, align 8
  store ptr %150, ptr %4, align 8
  br label %151

151:                                              ; preds = %142, %139, %127, %67, %55, %11
  %152 = load ptr, ptr %4, align 8
  ret ptr %152
}