; Function Attrs: nounwind uwtable
define internal ptr @lxb_html_tokenizer_state_doctype_after_system_identifier(ptr noundef %0, ptr noundef %1, ptr noundef readnone %2) #0 {
  %4 = load i8, ptr %1, align 1
  switch i8 %4, label %67 [
    i8 9, label %5
    i8 10, label %5
    i8 12, label %5
    i8 13, label %5
    i8 32, label %5
    i8 62, label %7
    i8 0, label %31
  ]

5:                                                ; preds = %3, %3, %3, %3, %3
  %6 = getelementptr inbounds i8, ptr %1, i64 1
  br label %71

7:                                                ; preds = %3
  store ptr @lxb_html_tokenizer_state_data_before, ptr %0, align 8
  %8 = getelementptr inbounds i8, ptr %0, i64 64
  %9 = load ptr, ptr %8, align 8
  %10 = load ptr, ptr %9, align 8
  %11 = getelementptr inbounds i8, ptr %9, i64 8
  %12 = load ptr, ptr %11, align 8
  %.not43 = icmp eq ptr %10, %12
  br i1 %.not43, label %25, label %13

13:                                               ; preds = %7
  %14 = getelementptr inbounds i8, ptr %0, i64 16
  %15 = load ptr, ptr %14, align 8
  %16 = getelementptr inbounds i8, ptr %0, i64 24
  %17 = load ptr, ptr %16, align 8
  %18 = tail call ptr %15(ptr noundef nonnull %0, ptr noundef nonnull %9, ptr noundef %17) #4
  store ptr %18, ptr %8, align 8
  %19 = icmp eq ptr %18, null
  br i1 %19, label %20, label %25

20:                                               ; preds = %13
  %21 = getelementptr inbounds i8, ptr %0, i64 232
  %22 = load i32, ptr %21, align 8
  %23 = icmp eq i32 %22, 0
  br i1 %23, label %24, label %71

24:                                               ; preds = %20
  store i32 1, ptr %21, align 8
  br label %71

25:                                               ; preds = %13, %7
  %26 = phi ptr [ %18, %13 ], [ %9, %7 ]
  tail call void @llvm.memset.p0.i64(ptr noundef nonnull align 8 dereferenceable(96) %26, i8 0, i64 96, i1 false)
  %27 = getelementptr inbounds i8, ptr %0, i64 128
  %28 = load ptr, ptr %27, align 8
  %29 = getelementptr inbounds i8, ptr %0, i64 136
  store ptr %28, ptr %29, align 8
  %30 = getelementptr inbounds i8, ptr %1, i64 1
  br label %71

31:                                               ; preds = %3
  %32 = getelementptr inbounds i8, ptr %0, i64 236
  %33 = load i8, ptr %32, align 4
  %34 = and i8 %33, 1
  %.not = icmp eq i8 %34, 0
  br i1 %.not, label %67, label %35

35:                                               ; preds = %31
  %36 = getelementptr inbounds i8, ptr %0, i64 88
  %37 = load ptr, ptr %36, align 8
  %38 = getelementptr inbounds i8, ptr %0, i64 160
  %39 = load ptr, ptr %38, align 8
  %40 = tail call ptr @lxb_html_tokenizer_error_add(ptr noundef %37, ptr noundef %39, i32 noundef 14) #4
  %41 = getelementptr inbounds i8, ptr %0, i64 64
  %42 = load ptr, ptr %41, align 8
  %43 = getelementptr inbounds i8, ptr %42, i64 88
  %44 = load i32, ptr %43, align 8
  %45 = or i32 %44, 4
  store i32 %45, ptr %43, align 8
  %46 = load ptr, ptr %41, align 8
  %47 = load ptr, ptr %46, align 8
  %48 = getelementptr inbounds i8, ptr %46, i64 8
  %49 = load ptr, ptr %48, align 8
  %.not42 = icmp eq ptr %47, %49
  br i1 %.not42, label %62, label %50

50:                                               ; preds = %35
  %51 = getelementptr inbounds i8, ptr %0, i64 16
  %52 = load ptr, ptr %51, align 8
  %53 = getelementptr inbounds i8, ptr %0, i64 24
  %54 = load ptr, ptr %53, align 8
  %55 = tail call ptr %52(ptr noundef nonnull %0, ptr noundef nonnull %46, ptr noundef %54) #4
  store ptr %55, ptr %41, align 8
  %56 = icmp eq ptr %55, null
  br i1 %56, label %57, label %62

57:                                               ; preds = %50
  %58 = getelementptr inbounds i8, ptr %0, i64 232
  %59 = load i32, ptr %58, align 8
  %60 = icmp eq i32 %59, 0
  br i1 %60, label %61, label %71

61:                                               ; preds = %57
  store i32 1, ptr %58, align 8
  br label %71

62:                                               ; preds = %50, %35
  %63 = phi ptr [ %55, %50 ], [ %46, %35 ]
  tail call void @llvm.memset.p0.i64(ptr noundef nonnull align 8 dereferenceable(96) %63, i8 0, i64 96, i1 false)
  %64 = getelementptr inbounds i8, ptr %0, i64 128
  %65 = load ptr, ptr %64, align 8
  %66 = getelementptr inbounds i8, ptr %0, i64 136
  store ptr %65, ptr %66, align 8
  br label %71

67:                                               ; preds = %31, %3
  %68 = getelementptr inbounds i8, ptr %0, i64 88
  %69 = load ptr, ptr %68, align 8
  %70 = tail call ptr @lxb_html_tokenizer_error_add(ptr noundef %69, ptr noundef nonnull %1, i32 noundef 41) #4
  store ptr @lxb_html_tokenizer_state_doctype_bogus, ptr %0, align 8
  br label %71

71:                                               ; preds = %57, %61, %20, %24, %67, %62, %25, %5
  %.0 = phi ptr [ %1, %67 ], [ %2, %62 ], [ %30, %25 ], [ %6, %5 ], [ %2, %24 ], [ %2, %20 ], [ %2, %61 ], [ %2, %57 ]
  ret ptr %.0
}